target datalayout = "e-m:e-p270:32:32-p271:32:32-p272:64:64-i64:64-i128:128-f80:128-n8:16:32:64-S128"
target triple = "x86_64-pc-linux-gnu"

%struct.slab_rebal_thread = type { i8, i8, ptr, ptr, %union.pthread_mutex_t, %union.pthread_cond_t, i64, ptr, i32, %struct.timespec, ptr, ptr, %struct.slab_rebalance }
%union.pthread_mutex_t = type { %struct.__pthread_mutex_s }
%struct.__pthread_mutex_s = type { i32, i32, i32, i32, i32, i16, i16, %struct.__pthread_internal_list }
%struct.__pthread_internal_list = type { ptr, ptr }
%union.pthread_cond_t = type { %struct.__pthread_cond_s }
%struct.__pthread_cond_s = type { %union.__atomic_wide_counter, %union.__atomic_wide_counter, [2 x i32], [2 x i32], i32, i32, [2 x i32] }
%union.__atomic_wide_counter = type { i64 }
%struct.timespec = type { i64, i64 }
%struct.slab_rebalance = type { ptr, ptr, ptr, i32, i32, i32, i32, i32, i32, i32, i32, i32, i32, i8, ptr }

; Function Attrs: nounwind uwtable
define internal i32 @do_slabs_reassign(ptr noundef %0, i32 noundef %1, i32 noundef %2, i32 noundef %3) #0 {
  %5 = alloca i32, align 4
  %6 = alloca ptr, align 8
  %7 = alloca i32, align 4
  %8 = alloca i32, align 4
  %9 = alloca i32, align 4
  store ptr %0, ptr %6, align 8, !tbaa !4
  store i32 %1, ptr %7, align 4, !tbaa !9
  store i32 %2, ptr %8, align 4, !tbaa !9
  store i32 %3, ptr %9, align 4, !tbaa !9
  %10 = load i32, ptr %7, align 4, !tbaa !9
  %11 = load i32, ptr %8, align 4, !tbaa !9
  %12 = icmp eq i32 %10, %11
  br i1 %12, label %13, label %14

13:                                               ; preds = %4
  store i32 4, ptr %5, align 4
  br label %57

14:                                               ; preds = %4
  %15 = load i32, ptr %7, align 4, !tbaa !9
  %16 = icmp eq i32 %15, -1
  br i1 %16, label %17, label %20

17:                                               ; preds = %14
  %18 = load i32, ptr %8, align 4, !tbaa !9
  %19 = call i32 @slabs_pick_any_for_reassign(i32 noundef %18)
  store i32 %19, ptr %7, align 4, !tbaa !9
  br label %20

20:                                               ; preds = %17, %14
  %21 = load i32, ptr %7, align 4, !tbaa !9
  %22 = icmp slt i32 %21, 0
  br i1 %22, label %32, label %23

23:                                               ; preds = %20
  %24 = load i32, ptr %7, align 4, !tbaa !9
  %25 = icmp sgt i32 %24, 64
  br i1 %25, label %32, label %26

26:                                               ; preds = %23
  %27 = load i32, ptr %8, align 4, !tbaa !9
  %28 = icmp slt i32 %27, 0
  br i1 %28, label %32, label %29

29:                                               ; preds = %26
  %30 = load i32, ptr %8, align 4, !tbaa !9
  %31 = icmp sgt i32 %30, 64
  br i1 %31, label %32, label %33

32:                                               ; preds = %29, %26, %23, %20
  store i32 2, ptr %5, align 4
  br label %57

33:                                               ; preds = %29
  %34 = load i32, ptr %7, align 4, !tbaa !9
  %35 = call i32 @slabs_page_count(i32 noundef %34)
  %36 = icmp slt i32 %35, 2
  br i1 %36, label %37, label %38

37:                                               ; preds = %33
  store i32 3, ptr %5, align 4
  br label %57

38:                                               ; preds = %33
  %39 = load i32, ptr %7, align 4, !tbaa !9
  %40 = load ptr, ptr %6, align 8, !tbaa !4
  %41 = getelementptr inbounds nuw %struct.slab_rebal_thread, ptr %40, i32 0, i32 12
  %42 = getelementptr inbounds nuw %struct.slab_rebalance, ptr %41, i32 0, i32 3
  store i32 %39, ptr %42, align 8, !tbaa !11
  %43 = load i32, ptr %8, align 4, !tbaa !9
  %44 = load ptr, ptr %6, align 8, !tbaa !4
  %45 = getelementptr inbounds nuw %struct.slab_rebal_thread, ptr %44, i32 0, i32 12
  %46 = getelementptr inbounds nuw %struct.slab_rebalance, ptr %45, i32 0, i32 4
  store i32 %43, ptr %46, align 4, !tbaa !20
  %47 = load i32, ptr %9, align 4, !tbaa !9
  %48 = and i32 %47, 1
  %49 = icmp ne i32 %48, 0
  br i1 %49, label %50, label %53

50:                                               ; preds = %38
  %51 = load ptr, ptr %6, align 8, !tbaa !4
  %52 = getelementptr inbounds nuw %struct.slab_rebal_thread, ptr %51, i32 0, i32 1
  store i8 1, ptr %52, align 1, !tbaa !21
  br label %53

53:                                               ; preds = %50, %38
  %54 = load ptr, ptr %6, align 8, !tbaa !4
  %55 = getelementptr inbounds nuw %struct.slab_rebal_thread, ptr %54, i32 0, i32 5
  %56 = call i32 @pthread_cond_signal(ptr noundef %55) #7
  store i32 0, ptr %5, align 4
  br label %57

57:                                               ; preds = %53, %37, %32, %13
  %58 = load i32, ptr %5, align 4
  ret i32 %58
}

; Function Attrs: nounwind uwtable
define dso_local i32 @slabs_reassign(ptr noundef %0, i32 noundef %1, i32 noundef %2, i32 noundef %3) #0 {
  %5 = alloca i32, align 4
  %6 = alloca ptr, align 8
  %7 = alloca i32, align 4
  %8 = alloca i32, align 4
  %9 = alloca i32, align 4
  %10 = alloca i32, align 4
  %11 = alloca i32, align 4
  store ptr %0, ptr %6, align 8, !tbaa !4
  store i32 %1, ptr %7, align 4, !tbaa !9
  store i32 %2, ptr %8, align 4, !tbaa !9
  store i32 %3, ptr %9, align 4, !tbaa !9
  call void @llvm.lifetime.start.p0(i64 4, ptr %10) #7
  %12 = load ptr, ptr %6, align 8, !tbaa !4
  %13 = getelementptr inbounds nuw %struct.slab_rebal_thread, ptr %12, i32 0, i32 4
  %14 = call i32 @pthread_mutex_trylock(ptr noundef %13) #7
  %15 = icmp ne i32 %14, 0
  br i1 %15, label %16, label %17

16:                                               ; preds = %4
  store i32 1, ptr %5, align 4
  store i32 1, ptr %11, align 4
  br label %27

17:                                               ; preds = %4
  %18 = load ptr, ptr %6, align 8, !tbaa !4
  %19 = load i32, ptr %7, align 4, !tbaa !9
  %20 = load i32, ptr %8, align 4, !tbaa !9
  %21 = load i32, ptr %9, align 4, !tbaa !9
  %22 = call i32 @do_slabs_reassign(ptr noundef %18, i32 noundef %19, i32 noundef %20, i32 noundef %21)
  store i32 %22, ptr %10, align 4, !tbaa !9
  %23 = load ptr, ptr %6, align 8, !tbaa !4
  %24 = getelementptr inbounds nuw %struct.slab_rebal_thread, ptr %23, i32 0, i32 4
  %25 = call i32 @pthread_mutex_unlock(ptr noundef %24) #7
  %26 = load i32, ptr %10, align 4, !tbaa !9
  store i32 %26, ptr %5, align 4
  store i32 1, ptr %11, align 4
  br label %27

27:                                               ; preds = %17, %16
  call void @llvm.lifetime.end.p0(i64 4, ptr %10) #7
  %28 = load i32, ptr %5, align 4
  ret i32 %28
}