; Function Attrs: nounwind uwtable
define dso_local range(i32 0, 5) i32 @slabs_reassign(ptr noundef %0, i32 noundef %1, i32 noundef %2, i32 noundef %3) local_unnamed_addr #0 {
  %5 = getelementptr inbounds nuw i8, ptr %0, i64 24
  %6 = tail call i32 @pthread_mutex_trylock(ptr noundef nonnull %5) #11
  %.not = icmp eq i32 %6, 0
  br i1 %.not, label %7, label %28

7:                                                ; preds = %4
  %8 = icmp eq i32 %1, %2
  br i1 %8, label %do_slabs_reassign.exit, label %9

9:                                                ; preds = %7
  %10 = icmp eq i32 %1, -1
  br i1 %10, label %11, label %13

11:                                               ; preds = %9
  %12 = tail call i32 @slabs_pick_any_for_reassign(i32 noundef %2) #11
  br label %13

13:                                               ; preds = %11, %9
  %.021.i = phi i32 [ %12, %11 ], [ %1, %9 ]
  %or.cond.i = icmp ugt i32 %.021.i, 64
  %14 = icmp ugt i32 %2, 64
  %or.cond5.i = or i1 %14, %or.cond.i
  br i1 %or.cond5.i, label %do_slabs_reassign.exit, label %15

15:                                               ; preds = %13
  %16 = tail call i32 @slabs_page_count(i32 noundef %.021.i) #11
  %17 = icmp slt i32 %16, 2
  br i1 %17, label %do_slabs_reassign.exit, label %18

18:                                               ; preds = %15
  %19 = getelementptr inbounds nuw i8, ptr %0, i64 192
  store i32 %.021.i, ptr %19, align 8, !tbaa !4
  %20 = getelementptr inbounds nuw i8, ptr %0, i64 196
  store i32 %2, ptr %20, align 4, !tbaa !17
  %21 = and i32 %3, 1
  %.not.i = icmp eq i32 %21, 0
  br i1 %.not.i, label %24, label %22

22:                                               ; preds = %18
  %23 = getelementptr inbounds nuw i8, ptr %0, i64 1
  store i8 1, ptr %23, align 1, !tbaa !18
  br label %24

24:                                               ; preds = %22, %18
  %25 = getelementptr inbounds nuw i8, ptr %0, i64 64
  %26 = tail call i32 @pthread_cond_signal(ptr noundef nonnull %25) #11
  br label %do_slabs_reassign.exit

do_slabs_reassign.exit:                           ; preds = %7, %13, %15, %24
  %.0.i = phi i32 [ 0, %24 ], [ 4, %7 ], [ 2, %13 ], [ 3, %15 ]
  %27 = tail call i32 @pthread_mutex_unlock(ptr noundef nonnull %5) #11
  br label %28

28:                                               ; preds = %4, %do_slabs_reassign.exit
  %.0 = phi i32 [ %.0.i, %do_slabs_reassign.exit ], [ 1, %4 ]
  ret i32 %.0
}